(dp0
S'colleague'
p1
(i__main__
person
p2
(dp3
S'mail'
p4
S'Joshen@company.com'
p5
sS'mane'
p6
S'Joshen'
p7
sS'key'
p8
g1
sbsS'teacher'
p9
(i__main__
person
p10
(dp11
g4
S'kellen@163.com'
p12
sg6
S'kellen'
p13
sg8
g9
sbsS'friend'
p14
(i__main__
person
p15
(dp16
g4
S'Mike@yahoo,com'
p17
sg6
S'Mike'
p18
sg8
S'friends'
p19
sbs.